; Function Attrs: nounwind uwtable
define hidden void @nghttp2_frame_origin_free(ptr noundef readonly captures(none) %0, ptr noundef %1) local_unnamed_addr #0 {
  %3 = getelementptr inbounds nuw i8, ptr %0, i64 16
  %4 = load ptr, ptr %3, align 8, !tbaa !46
  %5 = icmp eq ptr %4, null
  br i1 %5, label %9, label %6

6:                                                ; preds = %2
  %7 = getelementptr inbounds nuw i8, ptr %4, i64 8
  %8 = load ptr, ptr %7, align 8, !tbaa !57
  tail call void @nghttp2_mem_free(ptr noundef %1, ptr noundef %8) #18
  br label %9

9:                                                ; preds = %2, %6
  ret void
}